; Function Attrs: nounwind uwtable
define void @Vec_IntPermute(ptr noundef readonly captures(none) %0) local_unnamed_addr #0 {
  %2 = getelementptr i8, ptr %0, i64 4
  %.val = load i32, ptr %2, align 4
  %3 = getelementptr i8, ptr %0, i64 8
  %.val15 = load ptr, ptr %3, align 8
  %4 = tail call i64 @time(ptr noundef null) #31
  %5 = trunc i64 %4 to i32
  tail call void @srand(i32 noundef %5) #31
  %6 = icmp sgt i32 %.val, 0
  br i1 %6, label %.lr.ph.preheader, label %._crit_edge

.lr.ph.preheader:                                 ; preds = %1
  %wide.trip.count = zext nneg i32 %.val to i64
  br label %.lr.ph

.lr.ph:                                           ; preds = %.lr.ph.preheader, %.lr.ph
  %indvars.iv = phi i64 [ 0, %.lr.ph.preheader ], [ %indvars.iv.next, %.lr.ph ]
  %7 = tail call i32 @rand() #31
  %8 = srem i32 %7, %.val
  %9 = getelementptr inbounds nuw i32, ptr %.val15, i64 %indvars.iv
  %10 = load i32, ptr %9, align 4
  %11 = sext i32 %8 to i64
  %12 = getelementptr inbounds i32, ptr %.val15, i64 %11
  %13 = load i32, ptr %12, align 4
  store i32 %13, ptr %9, align 4
  store i32 %10, ptr %12, align 4
  %indvars.iv.next = add nuw nsw i64 %indvars.iv, 1
  %exitcond.not = icmp eq i64 %indvars.iv.next, %wide.trip.count
  br i1 %exitcond.not, label %._crit_edge, label %.lr.ph, !llvm.loop !81

._crit_edge:                                      ; preds = %.lr.ph, %1
  ret void
}